target datalayout = "e-m:e-p270:32:32-p271:32:32-p272:64:64-i64:64-i128:128-f80:128-n8:16:32:64-S128"
target triple = "x86_64-unknown-linux-gnu"

; Function Attrs: mustprogress nounwind uwtable
define linkonce_odr noundef nonnull align 8 dereferenceable(8) ptr @_ZSt3maxImERKT_S2_S2_(ptr noundef nonnull align 8 dereferenceable(8) %__a, ptr noundef nonnull align 8 dereferenceable(8) %__b) #1 comdat {
entry:
  %retval = alloca ptr, align 8
  %__a.addr = alloca ptr, align 8
  %__b.addr = alloca ptr, align 8
  store ptr %__a, ptr %__a.addr, align 8
  store ptr %__b, ptr %__b.addr, align 8
  %0 = load ptr, ptr %__a.addr, align 8
  %1 = load i64, ptr %0, align 8
  %2 = load ptr, ptr %__b.addr, align 8
  %3 = load i64, ptr %2, align 8
  %cmp = icmp ult i64 %1, %3
  br i1 %cmp, label %if.then, label %if.end

if.then:                                          ; preds = %entry
  %4 = load ptr, ptr %__b.addr, align 8
  store ptr %4, ptr %retval, align 8
  br label %return

if.end:                                           ; preds = %entry
  %5 = load ptr, ptr %__a.addr, align 8
  store ptr %5, ptr %retval, align 8
  br label %return

return:                                           ; preds = %if.end, %if.then
  %6 = load ptr, ptr %retval, align 8
  ret ptr %6
}

; Function Attrs: mustprogress nounwind uwtable
define linkonce_odr noundef i64 @_ZN7rocksdb22TruncateToPageBoundaryEmm(i64 noundef %page_size, i64 noundef %s) #1 comdat {
entry:
  %page_size.addr = alloca i64, align 8
  %s.addr = alloca i64, align 8
  store i64 %page_size, ptr %page_size.addr, align 8
  store i64 %s, ptr %s.addr, align 8
  %0 = load i64, ptr %s.addr, align 8
  %1 = load i64, ptr %page_size.addr, align 8
  %sub = sub i64 %1, 1
  %and = and i64 %0, %sub
  %2 = load i64, ptr %s.addr, align 8
  %sub1 = sub i64 %2, %and
  store i64 %sub1, ptr %s.addr, align 8
  %3 = load i64, ptr %s.addr, align 8
  ret i64 %3
}

; Function Attrs: mustprogress nounwind uwtable
define linkonce_odr noundef nonnull align 8 dereferenceable(8) ptr @_ZSt3minImERKT_S2_S2_(ptr noundef nonnull align 8 dereferenceable(8) %__a, ptr noundef nonnull align 8 dereferenceable(8) %__b) #1 comdat {
entry:
  %retval = alloca ptr, align 8
  %__a.addr = alloca ptr, align 8
  %__b.addr = alloca ptr, align 8
  store ptr %__a, ptr %__a.addr, align 8
  store ptr %__b, ptr %__b.addr, align 8
  %0 = load ptr, ptr %__b.addr, align 8
  %1 = load i64, ptr %0, align 8
  %2 = load ptr, ptr %__a.addr, align 8
  %3 = load i64, ptr %2, align 8
  %cmp = icmp ult i64 %1, %3
  br i1 %cmp, label %if.then, label %if.end

if.then:                                          ; preds = %entry
  %4 = load ptr, ptr %__b.addr, align 8
  store ptr %4, ptr %retval, align 8
  br label %return

if.end:                                           ; preds = %entry
  %5 = load ptr, ptr %__a.addr, align 8
  store ptr %5, ptr %retval, align 8
  br label %return

return:                                           ; preds = %if.end, %if.then
  %6 = load ptr, ptr %retval, align 8
  ret ptr %6
}

; Function Attrs: mustprogress uwtable
define noundef i64 @_ZN7rocksdb11RateLimiter12RequestTokenEmmNS_3Env10IOPriorityEPNS_10StatisticsENS0_6OpTypeE(ptr noundef nonnull align 8 dereferenceable(12) %this, i64 noundef %bytes, i64 noundef %alignment, i32 noundef %io_priority, ptr noundef %stats, i32 noundef %op_type) unnamed_addr #0 align 2 {
entry:
  %this.addr = alloca ptr, align 8
  %bytes.addr = alloca i64, align 8
  %alignment.addr = alloca i64, align 8
  %io_priority.addr = alloca i32, align 4
  %stats.addr = alloca ptr, align 8
  %op_type.addr = alloca i32, align 4
  %ref.tmp = alloca i64, align 8
  %ref.tmp8 = alloca i64, align 8
  store ptr %this, ptr %this.addr, align 8
  store i64 %bytes, ptr %bytes.addr, align 8
  store i64 %alignment, ptr %alignment.addr, align 8
  store i32 %io_priority, ptr %io_priority.addr, align 4
  store ptr %stats, ptr %stats.addr, align 8
  store i32 %op_type, ptr %op_type.addr, align 4
  %this1 = load ptr, ptr %this.addr, align 8
  %0 = load i32, ptr %io_priority.addr, align 4
  %cmp = icmp slt i32 %0, 4
  br i1 %cmp, label %land.lhs.true, label %if.end13

land.lhs.true:                                    ; preds = %entry
  %1 = load i32, ptr %op_type.addr, align 4
  %vtable = load ptr, ptr %this1, align 8
  %vfn = getelementptr inbounds ptr, ptr %vtable, i64 13
  %2 = load ptr, ptr %vfn, align 8
  %call = call noundef zeroext i1 %2(ptr noundef nonnull align 8 dereferenceable(12) %this1, i32 noundef %1)
  br i1 %call, label %if.then, label %if.end13

if.then:                                          ; preds = %land.lhs.true
  %vtable2 = load ptr, ptr %this1, align 8
  %vfn3 = getelementptr inbounds ptr, ptr %vtable2, i64 8
  %3 = load ptr, ptr %vfn3, align 8
  %call4 = call noundef i64 %3(ptr noundef nonnull align 8 dereferenceable(12) %this1)
  store i64 %call4, ptr %ref.tmp, align 8
  %call5 = call noundef nonnull align 8 dereferenceable(8) ptr @_ZSt3minImERKT_S2_S2_(ptr noundef nonnull align 8 dereferenceable(8) %bytes.addr, ptr noundef nonnull align 8 dereferenceable(8) %ref.tmp)
  %4 = load i64, ptr %call5, align 8
  store i64 %4, ptr %bytes.addr, align 8
  %5 = load i64, ptr %alignment.addr, align 8
  %cmp6 = icmp ugt i64 %5, 0
  br i1 %cmp6, label %if.then7, label %if.end

if.then7:                                         ; preds = %if.then
  %6 = load i64, ptr %alignment.addr, align 8
  %7 = load i64, ptr %bytes.addr, align 8
  %call9 = call noundef i64 @_ZN7rocksdb22TruncateToPageBoundaryEmm(i64 noundef %6, i64 noundef %7)
  store i64 %call9, ptr %ref.tmp8, align 8
  %call10 = call noundef nonnull align 8 dereferenceable(8) ptr @_ZSt3maxImERKT_S2_S2_(ptr noundef nonnull align 8 dereferenceable(8) %alignment.addr, ptr noundef nonnull align 8 dereferenceable(8) %ref.tmp8)
  %8 = load i64, ptr %call10, align 8
  store i64 %8, ptr %bytes.addr, align 8
  br label %if.end

if.end:                                           ; preds = %if.then7, %if.then
  %9 = load i64, ptr %bytes.addr, align 8
  %10 = load i32, ptr %io_priority.addr, align 4
  %11 = load ptr, ptr %stats.addr, align 8
  %12 = load i32, ptr %op_type.addr, align 4
  %vtable11 = load ptr, ptr %this1, align 8
  %vfn12 = getelementptr inbounds ptr, ptr %vtable11, i64 6
  %13 = load ptr, ptr %vfn12, align 8
  call void %13(ptr noundef nonnull align 8 dereferenceable(12) %this1, i64 noundef %9, i32 noundef %10, ptr noundef %11, i32 noundef %12)
  br label %if.end13

if.end13:                                         ; preds = %if.end, %land.lhs.true, %entry
  %14 = load i64, ptr %bytes.addr, align 8
  ret i64 %14
}