; Function Attrs: mustprogress uwtable
define noundef i64 @_ZN7rocksdb11RateLimiter12RequestTokenEmmNS_3Env10IOPriorityEPNS_10StatisticsENS0_6OpTypeE(ptr noundef nonnull align 8 dereferenceable(12) %this, i64 noundef %bytes, i64 noundef %alignment, i32 noundef %io_priority, ptr noundef %stats, i32 noundef %op_type) unnamed_addr #0 align 2 {
entry:
  %cmp = icmp slt i32 %io_priority, 4
  br i1 %cmp, label %land.lhs.true, label %if.end13

land.lhs.true:                                    ; preds = %entry
  %vtable = load ptr, ptr %this, align 8
  %vfn = getelementptr inbounds i8, ptr %vtable, i64 104
  %0 = load ptr, ptr %vfn, align 8
  %call = tail call noundef zeroext i1 %0(ptr noundef nonnull align 8 dereferenceable(12) %this, i32 noundef %op_type)
  br i1 %call, label %if.then, label %if.end13

if.then:                                          ; preds = %land.lhs.true
  %vtable2 = load ptr, ptr %this, align 8
  %vfn3 = getelementptr inbounds i8, ptr %vtable2, i64 64
  %1 = load ptr, ptr %vfn3, align 8
  %call4 = tail call noundef i64 %1(ptr noundef nonnull align 8 dereferenceable(12) %this)
  %.sroa.speculated7 = tail call i64 @llvm.umin.i64(i64 %call4, i64 %bytes)
  %cmp6.not = icmp eq i64 %alignment, 0
  %sub.not.i = sub i64 0, %alignment
  %sub1.i = and i64 %.sroa.speculated7, %sub.not.i
  %.sroa.speculated = tail call i64 @llvm.umax.i64(i64 %sub1.i, i64 %alignment)
  %bytes.addr.0 = select i1 %cmp6.not, i64 %.sroa.speculated7, i64 %.sroa.speculated
  %vtable11 = load ptr, ptr %this, align 8
  %vfn12 = getelementptr inbounds i8, ptr %vtable11, i64 48
  %2 = load ptr, ptr %vfn12, align 8
  tail call void %2(ptr noundef nonnull align 8 dereferenceable(12) %this, i64 noundef %bytes.addr.0, i32 noundef %io_priority, ptr noundef %stats, i32 noundef %op_type)
  br label %if.end13

if.end13:                                         ; preds = %if.then, %land.lhs.true, %entry
  %bytes.addr.1 = phi i64 [ %bytes.addr.0, %if.then ], [ %bytes, %land.lhs.true ], [ %bytes, %entry ]
  ret i64 %bytes.addr.1
}